target datalayout = "e-m:e-p270:32:32-p271:32:32-p272:64:64-i64:64-i128:128-f80:128-n8:16:32:64-S128"
target triple = "x86_64-pc-linux-gnu"

%class.btSequentialImpulseConstraintSolver = type { %class.btConstraintSolver, %class.btAlignedObjectArray, %class.btAlignedObjectArray.0, %class.btAlignedObjectArray.0, %class.btAlignedObjectArray.0, %class.btAlignedObjectArray.0, %class.btAlignedObjectArray.2, %class.btAlignedObjectArray.2, %class.btAlignedObjectArray.2, %class.btAlignedObjectArray.4, i32, i32, %class.btAlignedObjectArray.2, ptr, ptr, ptr, i32, float, i64, %struct.btSolverAnalyticsData }
%class.btConstraintSolver = type { ptr }
%class.btAlignedObjectArray = type <{ [4 x i8], i32, i32, [4 x i8], ptr, i8, [7 x i8] }>
%class.btAlignedObjectArray.0 = type <{ [4 x i8], i32, i32, [4 x i8], ptr, i8, [7 x i8] }>
%class.btAlignedObjectArray.4 = type <{ [4 x i8], i32, i32, [4 x i8], ptr, i8, [7 x i8] }>
%class.btAlignedObjectArray.2 = type <{ [4 x i8], i32, i32, [4 x i8], ptr, i8, [7 x i8] }>
%struct.btSolverAnalyticsData = type { i32, i32, i32, i32, i32, double }
%class.btVector3 = type { [4 x float] }
%struct.btSolverConstraint = type { %class.btVector3, %class.btVector3, %class.btVector3, %class.btVector3, %class.btVector3, %class.btVector3, float, float, float, float, float, float, float, float, float, %union.anon.6, i32, i32, i32, i32 }
%union.anon.6 = type { ptr }
%struct.btSolverBody = type { %class.btTransform, %class.btVector3, %class.btVector3, %class.btVector3, %class.btVector3, %class.btVector3, %class.btVector3, %class.btVector3, %class.btVector3, %class.btVector3, %class.btVector3, %class.btVector3, ptr }
%class.btTransform = type { %class.btMatrix3x3, %class.btVector3 }
%class.btMatrix3x3 = type { [3 x %class.btVector3] }
%struct.btContactSolverInfoData = type { float, float, float, float, float, i32, float, float, float, float, float, float, float, float, float, float, i32, float, float, float, float, float, i32, i32, i32, float, float, float, float, i8, i8, i32, i32 }
%class.CProfileSample = type { i8 }

@.str.4 = private unnamed_addr constant [46 x i8] c"solveGroupCacheFriendlySplitImpulseIterations\00", align 1

; Function Attrs: inlinehint mustprogress nounwind uwtable
define linkonce_odr dso_local noundef nonnull align 4 dereferenceable(4) ptr @_Z5btMaxIfERKT_S2_S2_(ptr noundef nonnull align 4 dereferenceable(4) %0, ptr noundef nonnull align 4 dereferenceable(4) %1) #3 comdat {
  %3 = alloca ptr, align 8
  %4 = alloca ptr, align 8
  store ptr %0, ptr %3, align 8, !tbaa !85
  store ptr %1, ptr %4, align 8, !tbaa !85
  %5 = load ptr, ptr %3, align 8, !tbaa !85
  %6 = load float, ptr %5, align 4, !tbaa !66
  %7 = load ptr, ptr %4, align 8, !tbaa !85
  %8 = load float, ptr %7, align 4, !tbaa !66
  %9 = fcmp ogt float %6, %8
  br i1 %9, label %10, label %12

10:                                               ; preds = %2
  %11 = load ptr, ptr %3, align 8, !tbaa !85
  br label %14

12:                                               ; preds = %2
  %13 = load ptr, ptr %4, align 8, !tbaa !85
  br label %14

14:                                               ; preds = %12, %10
  %15 = phi ptr [ %11, %10 ], [ %13, %12 ]
  ret ptr %15
}

; Function Attrs: mustprogress uwtable
define linkonce_odr dso_local noundef float @_ZN35btSequentialImpulseConstraintSolver30resolveSplitPenetrationImpulseER12btSolverBodyS1_RK18btSolverConstraint(ptr noundef nonnull align 8 dereferenceable(408) %0, ptr noundef nonnull align 8 dereferenceable(248) %1, ptr noundef nonnull align 8 dereferenceable(248) %2, ptr noundef nonnull align 8 dereferenceable(160) %3) #2 comdat align 2 {
  %5 = alloca ptr, align 8
  %6 = alloca ptr, align 8
  %7 = alloca ptr, align 8
  %8 = alloca ptr, align 8
  store ptr %0, ptr %5, align 8, !tbaa !12
  store ptr %1, ptr %6, align 8, !tbaa !14
  store ptr %2, ptr %7, align 8, !tbaa !14
  store ptr %3, ptr %8, align 8, !tbaa !16
  %9 = load ptr, ptr %5, align 8
  %10 = getelementptr inbounds nuw %class.btSequentialImpulseConstraintSolver, ptr %9, i32 0, i32 15
  %11 = load ptr, ptr %10, align 8, !tbaa !58
  %12 = load ptr, ptr %6, align 8, !tbaa !14
  %13 = load ptr, ptr %7, align 8, !tbaa !14
  %14 = load ptr, ptr %8, align 8, !tbaa !16
  %15 = call noundef float %11(ptr noundef nonnull align 8 dereferenceable(248) %12, ptr noundef nonnull align 8 dereferenceable(248) %13, ptr noundef nonnull align 8 dereferenceable(160) %14)
  ret float %15
}

; Function Attrs: inlinehint mustprogress nounwind uwtable
define linkonce_odr dso_local noundef nonnull align 8 dereferenceable(248) ptr @_ZN20btAlignedObjectArrayI12btSolverBodyEixEi(ptr noundef nonnull align 8 dereferenceable(25) %0, i32 noundef %1) #3 comdat align 2 {
  %3 = alloca ptr, align 8
  %4 = alloca i32, align 4
  store ptr %0, ptr %3, align 8, !tbaa !43
  store i32 %1, ptr %4, align 4, !tbaa !9
  %5 = load ptr, ptr %3, align 8
  %6 = getelementptr inbounds nuw %class.btAlignedObjectArray, ptr %5, i32 0, i32 4
  %7 = load ptr, ptr %6, align 8, !tbaa !117
  %8 = load i32, ptr %4, align 4, !tbaa !9
  %9 = sext i32 %8 to i64
  %10 = getelementptr inbounds %struct.btSolverBody, ptr %7, i64 %9
  ret ptr %10
}

; Function Attrs: inlinehint mustprogress nounwind uwtable
define linkonce_odr dso_local noundef nonnull align 8 dereferenceable(160) ptr @_ZN20btAlignedObjectArrayI18btSolverConstraintEixEi(ptr noundef nonnull align 8 dereferenceable(25) %0, i32 noundef %1) #3 comdat align 2 {
  %3 = alloca ptr, align 8
  %4 = alloca i32, align 4
  store ptr %0, ptr %3, align 8, !tbaa !45
  store i32 %1, ptr %4, align 4, !tbaa !9
  %5 = load ptr, ptr %3, align 8
  %6 = getelementptr inbounds nuw %class.btAlignedObjectArray.0, ptr %5, i32 0, i32 4
  %7 = load ptr, ptr %6, align 8, !tbaa !120
  %8 = load i32, ptr %4, align 4, !tbaa !9
  %9 = sext i32 %8 to i64
  %10 = getelementptr inbounds %struct.btSolverConstraint, ptr %7, i64 %9
  ret ptr %10
}

; Function Attrs: inlinehint mustprogress nounwind uwtable
define linkonce_odr dso_local noundef nonnull align 4 dereferenceable(4) ptr @_ZN20btAlignedObjectArrayIiEixEi(ptr noundef nonnull align 8 dereferenceable(25) %0, i32 noundef %1) #3 comdat align 2 {
  %3 = alloca ptr, align 8
  %4 = alloca i32, align 4
  store ptr %0, ptr %3, align 8, !tbaa !47
  store i32 %1, ptr %4, align 4, !tbaa !9
  %5 = load ptr, ptr %3, align 8
  %6 = getelementptr inbounds nuw %class.btAlignedObjectArray.2, ptr %5, i32 0, i32 4
  %7 = load ptr, ptr %6, align 8, !tbaa !213
  %8 = load i32, ptr %4, align 4, !tbaa !9
  %9 = sext i32 %8 to i64
  %10 = getelementptr inbounds i32, ptr %7, i64 %9
  ret ptr %10
}

; Function Attrs: inlinehint mustprogress nounwind uwtable
define linkonce_odr dso_local noundef i32 @_ZNK20btAlignedObjectArrayI18btSolverConstraintE4sizeEv(ptr noundef nonnull align 8 dereferenceable(25) %0) #3 comdat align 2 {
  %2 = alloca ptr, align 8
  store ptr %0, ptr %2, align 8, !tbaa !45
  %3 = load ptr, ptr %2, align 8
  %4 = getelementptr inbounds nuw %class.btAlignedObjectArray.0, ptr %3, i32 0, i32 1
  %5 = load i32, ptr %4, align 4, !tbaa !119
  ret i32 %5
}

; Function Attrs: mustprogress uwtable
define dso_local void @_ZN35btSequentialImpulseConstraintSolver45solveGroupCacheFriendlySplitImpulseIterationsEPP17btCollisionObjectiPP20btPersistentManifoldiPP17btTypedConstraintiRK19btContactSolverInfoP12btIDebugDraw(ptr noundef nonnull align 8 dereferenceable(408) %0, ptr noundef %1, i32 noundef %2, ptr noundef %3, i32 noundef %4, ptr noundef %5, i32 noundef %6, ptr noundef nonnull align 4 dereferenceable(128) %7, ptr noundef %8) unnamed_addr #2 align 2 personality ptr @__gxx_personality_v0 {
  %10 = alloca ptr, align 8
  %11 = alloca ptr, align 8
  %12 = alloca i32, align 4
  %13 = alloca ptr, align 8
  %14 = alloca i32, align 4
  %15 = alloca ptr, align 8
  %16 = alloca i32, align 4
  %17 = alloca ptr, align 8
  %18 = alloca ptr, align 8
  %19 = alloca %class.CProfileSample, align 1
  %20 = alloca i32, align 4
  %21 = alloca float, align 4
  %22 = alloca i32, align 4
  %23 = alloca ptr, align 8
  %24 = alloca i32, align 4
  %25 = alloca i32, align 4
  %26 = alloca ptr, align 8
  %27 = alloca float, align 4
  %28 = alloca float, align 4
  %29 = alloca i32, align 4
  store ptr %0, ptr %10, align 8, !tbaa !12
  store ptr %1, ptr %11, align 8, !tbaa !198
  store i32 %2, ptr %12, align 4, !tbaa !9
  store ptr %3, ptr %13, align 8, !tbaa !152
  store i32 %4, ptr %14, align 4, !tbaa !9
  store ptr %5, ptr %15, align 8, !tbaa !187
  store i32 %6, ptr %16, align 4, !tbaa !9
  store ptr %7, ptr %17, align 8, !tbaa !106
  store ptr %8, ptr %18, align 8, !tbaa !207
  %30 = load ptr, ptr %10, align 8
  call void @llvm.lifetime.start.p0(i64 1, ptr %19) #15
  call void @_ZN14CProfileSampleC1EPKc(ptr noundef nonnull align 1 dereferenceable(1) %19, ptr noundef @.str.4)
  call void @llvm.lifetime.start.p0(i64 4, ptr %20) #15
  %31 = load ptr, ptr %17, align 8, !tbaa !106
  %32 = getelementptr inbounds nuw %struct.btContactSolverInfoData, ptr %31, i32 0, i32 16
  %33 = load i32, ptr %32, align 4, !tbaa !134
  %34 = icmp ne i32 %33, 0
  br i1 %34, label %35, label %124

35:                                               ; preds = %9
  store i32 0, ptr %20, align 4, !tbaa !9
  br label %36

36:                                               ; preds = %120, %35
  %37 = load i32, ptr %20, align 4, !tbaa !9
  %38 = load ptr, ptr %17, align 8, !tbaa !106
  %39 = getelementptr inbounds nuw %struct.btContactSolverInfoData, ptr %38, i32 0, i32 5
  %40 = load i32, ptr %39, align 4, !tbaa !158
  %41 = icmp slt i32 %37, %40
  br i1 %41, label %42, label %123

42:                                               ; preds = %36
  call void @llvm.lifetime.start.p0(i64 4, ptr %21) #15
  store float 0.000000e+00, ptr %21, align 4, !tbaa !66
  call void @llvm.lifetime.start.p0(i64 4, ptr %22) #15
  %43 = getelementptr inbounds nuw %class.btSequentialImpulseConstraintSolver, ptr %30, i32 0, i32 2
  %44 = invoke noundef i32 @_ZNK20btAlignedObjectArrayI18btSolverConstraintE4sizeEv(ptr noundef nonnull align 8 dereferenceable(25) %43)
          to label %45 unwind label %83

45:                                               ; preds = %42
  store i32 %44, ptr %22, align 4, !tbaa !9
  call void @llvm.lifetime.start.p0(i64 4, ptr %25) #15
  store i32 0, ptr %25, align 4, !tbaa !9
  br label %46

46:                                               ; preds = %80, %45
  %47 = load i32, ptr %25, align 4, !tbaa !9
  %48 = load i32, ptr %22, align 4, !tbaa !9
  %49 = icmp slt i32 %47, %48
  br i1 %49, label %50, label %101

50:                                               ; preds = %46
  call void @llvm.lifetime.start.p0(i64 8, ptr %26) #15
  %51 = getelementptr inbounds nuw %class.btSequentialImpulseConstraintSolver, ptr %30, i32 0, i32 2
  %52 = getelementptr inbounds nuw %class.btSequentialImpulseConstraintSolver, ptr %30, i32 0, i32 6
  %53 = load i32, ptr %25, align 4, !tbaa !9
  %54 = invoke noundef nonnull align 4 dereferenceable(4) ptr @_ZN20btAlignedObjectArrayIiEixEi(ptr noundef nonnull align 8 dereferenceable(25) %52, i32 noundef %53)
          to label %55 unwind label %87

55:                                               ; preds = %50
  %56 = load i32, ptr %54, align 4, !tbaa !9
  %57 = invoke noundef nonnull align 8 dereferenceable(160) ptr @_ZN20btAlignedObjectArrayI18btSolverConstraintEixEi(ptr noundef nonnull align 8 dereferenceable(25) %51, i32 noundef %56)
          to label %58 unwind label %87

58:                                               ; preds = %55
  store ptr %57, ptr %26, align 8, !tbaa !16
  call void @llvm.lifetime.start.p0(i64 4, ptr %27) #15
  %59 = getelementptr inbounds nuw %class.btSequentialImpulseConstraintSolver, ptr %30, i32 0, i32 1
  %60 = load ptr, ptr %26, align 8, !tbaa !16
  %61 = getelementptr inbounds nuw %struct.btSolverConstraint, ptr %60, i32 0, i32 18
  %62 = load i32, ptr %61, align 8, !tbaa !108
  %63 = invoke noundef nonnull align 8 dereferenceable(248) ptr @_ZN20btAlignedObjectArrayI12btSolverBodyEixEi(ptr noundef nonnull align 8 dereferenceable(25) %59, i32 noundef %62)
          to label %64 unwind label %91

64:                                               ; preds = %58
  %65 = getelementptr inbounds nuw %class.btSequentialImpulseConstraintSolver, ptr %30, i32 0, i32 1
  %66 = load ptr, ptr %26, align 8, !tbaa !16
  %67 = getelementptr inbounds nuw %struct.btSolverConstraint, ptr %66, i32 0, i32 19
  %68 = load i32, ptr %67, align 4, !tbaa !109
  %69 = invoke noundef nonnull align 8 dereferenceable(248) ptr @_ZN20btAlignedObjectArrayI12btSolverBodyEixEi(ptr noundef nonnull align 8 dereferenceable(25) %65, i32 noundef %68)
          to label %70 unwind label %91

70:                                               ; preds = %64
  %71 = load ptr, ptr %26, align 8, !tbaa !16
  %72 = invoke noundef float @_ZN35btSequentialImpulseConstraintSolver30resolveSplitPenetrationImpulseER12btSolverBodyS1_RK18btSolverConstraint(ptr noundef nonnull align 8 dereferenceable(408) %30, ptr noundef nonnull align 8 dereferenceable(248) %63, ptr noundef nonnull align 8 dereferenceable(248) %69, ptr noundef nonnull align 8 dereferenceable(160) %71)
          to label %73 unwind label %91

73:                                               ; preds = %70
  store float %72, ptr %27, align 4, !tbaa !66
  call void @llvm.lifetime.start.p0(i64 4, ptr %28) #15
  %74 = load float, ptr %27, align 4, !tbaa !66
  %75 = load float, ptr %27, align 4, !tbaa !66
  %76 = fmul float %74, %75
  store float %76, ptr %28, align 4, !tbaa !66
  %77 = invoke noundef nonnull align 4 dereferenceable(4) ptr @_Z5btMaxIfERKT_S2_S2_(ptr noundef nonnull align 4 dereferenceable(4) %21, ptr noundef nonnull align 4 dereferenceable(4) %28)
          to label %78 unwind label %95

78:                                               ; preds = %73
  %79 = load float, ptr %77, align 4, !tbaa !66
  store float %79, ptr %21, align 4, !tbaa !66
  call void @llvm.lifetime.end.p0(i64 4, ptr %28) #15
  call void @llvm.lifetime.end.p0(i64 4, ptr %27) #15
  call void @llvm.lifetime.end.p0(i64 8, ptr %26) #15
  br label %80

80:                                               ; preds = %78
  %81 = load i32, ptr %25, align 4, !tbaa !9
  %82 = add nsw i32 %81, 1
  store i32 %82, ptr %25, align 4, !tbaa !9
  br label %46, !llvm.loop !223

83:                                               ; preds = %42
  %84 = landingpad { ptr, i32 }
          cleanup
  %85 = extractvalue { ptr, i32 } %84, 0
  store ptr %85, ptr %23, align 8
  %86 = extractvalue { ptr, i32 } %84, 1
  store i32 %86, ptr %24, align 4
  br label %115

87:                                               ; preds = %55, %50
  %88 = landingpad { ptr, i32 }
          cleanup
  %89 = extractvalue { ptr, i32 } %88, 0
  store ptr %89, ptr %23, align 8
  %90 = extractvalue { ptr, i32 } %88, 1
  store i32 %90, ptr %24, align 4
  br label %100

91:                                               ; preds = %70, %64, %58
  %92 = landingpad { ptr, i32 }
          cleanup
  %93 = extractvalue { ptr, i32 } %92, 0
  store ptr %93, ptr %23, align 8
  %94 = extractvalue { ptr, i32 } %92, 1
  store i32 %94, ptr %24, align 4
  br label %99

95:                                               ; preds = %73
  %96 = landingpad { ptr, i32 }
          cleanup
  %97 = extractvalue { ptr, i32 } %96, 0
  store ptr %97, ptr %23, align 8
  %98 = extractvalue { ptr, i32 } %96, 1
  store i32 %98, ptr %24, align 4
  call void @llvm.lifetime.end.p0(i64 4, ptr %28) #15
  br label %99

99:                                               ; preds = %95, %91
  call void @llvm.lifetime.end.p0(i64 4, ptr %27) #15
  br label %100

100:                                              ; preds = %99, %87
  call void @llvm.lifetime.end.p0(i64 8, ptr %26) #15
  call void @llvm.lifetime.end.p0(i64 4, ptr %25) #15
  br label %115

101:                                              ; preds = %46
  call void @llvm.lifetime.end.p0(i64 4, ptr %25) #15
  call void @llvm.lifetime.end.p0(i64 4, ptr %22) #15
  %102 = load float, ptr %21, align 4, !tbaa !66
  %103 = load ptr, ptr %17, align 8, !tbaa !106
  %104 = getelementptr inbounds nuw %struct.btContactSolverInfoData, ptr %103, i32 0, i32 27
  %105 = load float, ptr %104, align 4, !tbaa !224
  %106 = fcmp ole float %102, %105
  br i1 %106, label %114, label %107

107:                                              ; preds = %101
  %108 = load i32, ptr %20, align 4, !tbaa !9
  %109 = load ptr, ptr %17, align 8, !tbaa !106
  %110 = getelementptr inbounds nuw %struct.btContactSolverInfoData, ptr %109, i32 0, i32 5
  %111 = load i32, ptr %110, align 4, !tbaa !158
  %112 = sub nsw i32 %111, 1
  %113 = icmp sge i32 %108, %112
  br i1 %113, label %114, label %116

114:                                              ; preds = %107, %101
  store i32 2, ptr %29, align 4
  br label %117

115:                                              ; preds = %100, %83
  call void @llvm.lifetime.end.p0(i64 4, ptr %22) #15
  call void @llvm.lifetime.end.p0(i64 4, ptr %21) #15
  call void @llvm.lifetime.end.p0(i64 4, ptr %20) #15
  call void @_ZN14CProfileSampleD1Ev(ptr noundef nonnull align 1 dereferenceable(1) %19) #15
  call void @llvm.lifetime.end.p0(i64 1, ptr %19) #15
  br label %125

116:                                              ; preds = %107
  store i32 0, ptr %29, align 4
  br label %117

117:                                              ; preds = %116, %114
  call void @llvm.lifetime.end.p0(i64 4, ptr %21) #15
  %118 = load i32, ptr %29, align 4
  switch i32 %118, label %130 [
    i32 0, label %119
    i32 2, label %123
  ]

119:                                              ; preds = %117
  br label %120

120:                                              ; preds = %119
  %121 = load i32, ptr %20, align 4, !tbaa !9
  %122 = add nsw i32 %121, 1
  store i32 %122, ptr %20, align 4, !tbaa !9
  br label %36, !llvm.loop !225

123:                                              ; preds = %117, %36
  br label %124

124:                                              ; preds = %123, %9
  call void @llvm.lifetime.end.p0(i64 4, ptr %20) #15
  call void @_ZN14CProfileSampleD1Ev(ptr noundef nonnull align 1 dereferenceable(1) %19) #15
  call void @llvm.lifetime.end.p0(i64 1, ptr %19) #15
  ret void

125:                                              ; preds = %115
  %126 = load ptr, ptr %23, align 8
  %127 = load i32, ptr %24, align 4
  %128 = insertvalue { ptr, i32 } poison, ptr %126, 0
  %129 = insertvalue { ptr, i32 } %128, i32 %127, 1
  resume { ptr, i32 } %129

130:                                              ; preds = %117
  unreachable
}