; Function Attrs: mustprogress uwtable
define dso_local void @_ZN35btSequentialImpulseConstraintSolver45solveGroupCacheFriendlySplitImpulseIterationsEPP17btCollisionObjectiPP20btPersistentManifoldiPP17btTypedConstraintiRK19btContactSolverInfoP12btIDebugDraw(ptr noundef nonnull readonly align 8 captures(none) dereferenceable(408) %0, ptr readnone captures(none) %1, i32 %2, ptr readnone captures(none) %3, i32 %4, ptr readnone captures(none) %5, i32 %6, ptr noundef nonnull readonly align 4 captures(none) dereferenceable(128) %7, ptr readnone captures(none) %8) unnamed_addr #0 align 2 personality ptr @__gxx_personality_v0 {
  %10 = alloca %class.CProfileSample, align 1
  call void @llvm.lifetime.start.p0(i64 1, ptr nonnull %10) #23
  call void @_ZN14CProfileSampleC1EPKc(ptr noundef nonnull align 1 dereferenceable(1) %10, ptr noundef nonnull @.str.4)
  %11 = getelementptr inbounds nuw i8, ptr %7, i64 64
  %12 = load i32, ptr %11, align 4, !tbaa !116
  %.not = icmp eq i32 %12, 0
  br i1 %.not, label %.loopexit, label %.preheader

.preheader:                                       ; preds = %9
  %13 = getelementptr inbounds nuw i8, ptr %7, i64 20
  %14 = load i32, ptr %13, align 4, !tbaa !141
  %15 = icmp sgt i32 %14, 0
  br i1 %15, label %.lr.ph28, label %.loopexit

.lr.ph28:                                         ; preds = %.preheader
  %16 = getelementptr inbounds nuw i8, ptr %0, i64 44
  %17 = getelementptr inbounds nuw i8, ptr %0, i64 184
  %18 = getelementptr inbounds nuw i8, ptr %0, i64 56
  %19 = getelementptr inbounds nuw i8, ptr %0, i64 24
  %20 = getelementptr inbounds nuw i8, ptr %0, i64 352
  %21 = getelementptr inbounds nuw i8, ptr %7, i64 108
  %22 = load i32, ptr %16, align 4, !tbaa !37
  %23 = icmp sgt i32 %22, 0
  br i1 %23, label %.lr.ph28.split, label %.loopexit

24:                                               ; preds = %._crit_edge
  %25 = add nuw nsw i32 %.01927, 1
  %26 = icmp slt i32 %25, %51
  br i1 %26, label %.lr.ph28.splitthread-pre-split, label %.loopexit, !llvm.loop !192

.lr.ph28.splitthread-pre-split:                   ; preds = %24
  %.pr = load i32, ptr %16, align 4, !tbaa !37
  br label %.lr.ph28.split

.lr.ph28.split:                                   ; preds = %.lr.ph28, %.lr.ph28.splitthread-pre-split
  %27 = phi i32 [ %.pr, %.lr.ph28.splitthread-pre-split ], [ %22, %.lr.ph28 ]
  %28 = phi i32 [ %51, %.lr.ph28.splitthread-pre-split ], [ %14, %.lr.ph28 ]
  %.01927 = phi i32 [ %25, %.lr.ph28.splitthread-pre-split ], [ 0, %.lr.ph28 ]
  %29 = icmp sgt i32 %27, 0
  br i1 %29, label %.lr.ph.preheader, label %._crit_edge

.lr.ph.preheader:                                 ; preds = %.lr.ph28.split
  %wide.trip.count = zext nneg i32 %27 to i64
  br label %.lr.ph

.lr.ph:                                           ; preds = %.lr.ph.preheader, %_ZN35btSequentialImpulseConstraintSolver30resolveSplitPenetrationImpulseER12btSolverBodyS1_RK18btSolverConstraint.exit
  %indvars.iv = phi i64 [ 0, %.lr.ph.preheader ], [ %indvars.iv.next, %_ZN35btSequentialImpulseConstraintSolver30resolveSplitPenetrationImpulseER12btSolverBodyS1_RK18btSolverConstraint.exit ]
  %.02325 = phi float [ 0.000000e+00, %.lr.ph.preheader ], [ %.sroa.speculated, %_ZN35btSequentialImpulseConstraintSolver30resolveSplitPenetrationImpulseER12btSolverBodyS1_RK18btSolverConstraint.exit ]
  %30 = load ptr, ptr %17, align 8, !tbaa !40
  %31 = getelementptr inbounds nuw i32, ptr %30, i64 %indvars.iv
  %32 = load i32, ptr %31, align 4, !tbaa !69
  %33 = load ptr, ptr %18, align 8, !tbaa !36
  %34 = sext i32 %32 to i64
  %35 = getelementptr inbounds %struct.btSolverConstraint, ptr %33, i64 %34
  %36 = getelementptr inbounds nuw i8, ptr %35, i64 152
  %37 = load i32, ptr %36, align 8, !tbaa !89
  %38 = load ptr, ptr %19, align 8, !tbaa !32
  %39 = sext i32 %37 to i64
  %40 = getelementptr inbounds %struct.btSolverBody, ptr %38, i64 %39
  %41 = getelementptr inbounds nuw i8, ptr %35, i64 156
  %42 = load i32, ptr %41, align 4, !tbaa !90
  %43 = sext i32 %42 to i64
  %44 = getelementptr inbounds %struct.btSolverBody, ptr %38, i64 %43
  %45 = load ptr, ptr %20, align 8, !tbaa !53
  %46 = invoke noundef float %45(ptr noundef nonnull align 8 dereferenceable(248) %40, ptr noundef nonnull align 8 dereferenceable(248) %44, ptr noundef nonnull align 8 dereferenceable(160) %35)
          to label %_ZN35btSequentialImpulseConstraintSolver30resolveSplitPenetrationImpulseER12btSolverBodyS1_RK18btSolverConstraint.exit unwind label %49

_ZN35btSequentialImpulseConstraintSolver30resolveSplitPenetrationImpulseER12btSolverBodyS1_RK18btSolverConstraint.exit: ; preds = %.lr.ph
  %47 = fmul float %46, %46
  %48 = fcmp ogt float %.02325, %47
  %.sroa.speculated = select i1 %48, float %.02325, float %47
  %indvars.iv.next = add nuw nsw i64 %indvars.iv, 1
  %exitcond.not = icmp eq i64 %indvars.iv.next, %wide.trip.count
  br i1 %exitcond.not, label %._crit_edge.loopexit, label %.lr.ph, !llvm.loop !194

49:                                               ; preds = %.lr.ph
  %50 = landingpad { ptr, i32 }
          cleanup
  call void @_ZN14CProfileSampleD1Ev(ptr noundef nonnull align 1 dereferenceable(1) %10) #23
  call void @llvm.lifetime.end.p0(i64 1, ptr nonnull %10) #23
  resume { ptr, i32 } %50

._crit_edge.loopexit:                             ; preds = %_ZN35btSequentialImpulseConstraintSolver30resolveSplitPenetrationImpulseER12btSolverBodyS1_RK18btSolverConstraint.exit
  %.pre = load i32, ptr %13, align 4
  br label %._crit_edge

._crit_edge:                                      ; preds = %._crit_edge.loopexit, %.lr.ph28.split
  %51 = phi i32 [ %28, %.lr.ph28.split ], [ %.pre, %._crit_edge.loopexit ]
  %.023.lcssa = phi float [ 0.000000e+00, %.lr.ph28.split ], [ %.sroa.speculated, %._crit_edge.loopexit ]
  %52 = load float, ptr %21, align 4, !tbaa !195
  %53 = fcmp ugt float %.023.lcssa, %52
  %54 = add nsw i32 %51, -1
  %.not21 = icmp slt i32 %.01927, %54
  %55 = select i1 %53, i1 %.not21, i1 false
  br i1 %55, label %24, label %.loopexit

.loopexit:                                        ; preds = %24, %._crit_edge, %.lr.ph28, %.preheader, %9
  call void @_ZN14CProfileSampleD1Ev(ptr noundef nonnull align 1 dereferenceable(1) %10) #23
  call void @llvm.lifetime.end.p0(i64 1, ptr nonnull %10) #23
  ret void
}